target datalayout = "e-m:e-p270:32:32-p271:32:32-p272:64:64-i64:64-i128:128-f80:128-n8:16:32:64-S128"
target triple = "x86_64-pc-linux-gnu"

%struct._value_string = type { i32, ptr }

@.str.50 = private unnamed_addr constant [5 x i8] c"None\00", align 1
@.str.165 = private unnamed_addr constant [2 x i8] c"0\00", align 1
@.str.294 = private unnamed_addr constant [13 x i8] c"interval SMA\00", align 1
@.str.295 = private unnamed_addr constant [16 x i8] c"%s interval SMA\00", align 1
@.str.296 = private unnamed_addr constant [18 x i8] c"invalid value: %s\00", align 1

; Function Attrs: mustprogress null_pointer_is_valid sspstrong uwtable
define internal noundef zeroext i1 @_ZL19sma_period_chk_enumPvPKcjPKvS3_PPc(ptr noundef %0, ptr noundef %1, i32 noundef %2, ptr noundef %3, ptr noundef %4, ptr noundef %5) #3 {
  %7 = alloca i1, align 1
  %8 = alloca ptr, align 8
  %9 = alloca ptr, align 8
  %10 = alloca i32, align 4
  %11 = alloca ptr, align 8
  %12 = alloca ptr, align 8
  %13 = alloca ptr, align 8
  %14 = alloca ptr, align 8
  %15 = alloca i32, align 4
  %16 = alloca ptr, align 8
  %17 = alloca ptr, align 8
  %18 = alloca i32, align 4
  store ptr %0, ptr %8, align 8
  store ptr %1, ptr %9, align 8
  store i32 %2, ptr %10, align 4
  store ptr %3, ptr %11, align 8
  store ptr %4, ptr %12, align 8
  store ptr %5, ptr %13, align 8
  call void @llvm.lifetime.start.p0(i64 8, ptr %14) #2
  %19 = load ptr, ptr %9, align 8
  %20 = load i32, ptr %10, align 4
  %21 = zext i32 %20 to i64
  %22 = call noalias ptr @g_strndup(ptr noundef %19, i64 noundef %21)
  store ptr %22, ptr %14, align 8
  call void @llvm.lifetime.start.p0(i64 4, ptr %15) #2
  call void @llvm.lifetime.start.p0(i64 8, ptr %16) #2
  %23 = load ptr, ptr %11, align 8
  store ptr %23, ptr %16, align 8
  %24 = load ptr, ptr %14, align 8
  %25 = call noundef ptr @strstr(ptr noundef %24, ptr noundef @.str.294) #30
  %26 = icmp eq ptr %25, null
  br i1 %26, label %27, label %46

27:                                               ; preds = %6
  %28 = load ptr, ptr %14, align 8
  %29 = call i32 @strcmp(ptr noundef %28, ptr noundef @.str.50) #30
  %30 = icmp eq i32 %29, 0
  br i1 %30, label %31, label %32

31:                                               ; preds = %27
  br label %45

32:                                               ; preds = %27
  %33 = load ptr, ptr %14, align 8
  %34 = call i32 @strcmp(ptr noundef %33, ptr noundef @.str.165) #30
  %35 = icmp eq i32 %34, 0
  br i1 %35, label %36, label %39

36:                                               ; preds = %32
  %37 = load ptr, ptr %14, align 8
  call void @g_free(ptr noundef %37)
  %38 = call noalias ptr @g_strdup(ptr noundef @.str.50)
  store ptr %38, ptr %14, align 8
  br label %44

39:                                               ; preds = %32
  call void @llvm.lifetime.start.p0(i64 8, ptr %17) #2
  %40 = load ptr, ptr %14, align 8
  %41 = call noalias ptr (ptr, ptr, ...) @wmem_strdup_printf(ptr noundef null, ptr noundef @.str.295, ptr noundef %40)
  store ptr %41, ptr %17, align 8
  %42 = load ptr, ptr %14, align 8
  call void @g_free(ptr noundef %42)
  %43 = load ptr, ptr %17, align 8
  store ptr %43, ptr %14, align 8
  call void @llvm.lifetime.end.p0(i64 8, ptr %17) #2
  br label %44

44:                                               ; preds = %39, %36
  br label %45

45:                                               ; preds = %44, %31
  br label %46

46:                                               ; preds = %45, %6
  store i32 0, ptr %15, align 4
  br label %47

47:                                               ; preds = %69, %46
  %48 = load ptr, ptr %16, align 8
  %49 = load i32, ptr %15, align 4
  %50 = zext i32 %49 to i64
  %51 = getelementptr %struct._value_string, ptr %48, i64 %50
  %52 = getelementptr inbounds nuw %struct._value_string, ptr %51, i32 0, i32 1
  %53 = load ptr, ptr %52, align 8
  %54 = icmp ne ptr %53, null
  br i1 %54, label %55, label %72

55:                                               ; preds = %47
  %56 = load ptr, ptr %16, align 8
  %57 = load i32, ptr %15, align 4
  %58 = zext i32 %57 to i64
  %59 = getelementptr %struct._value_string, ptr %56, i64 %58
  %60 = getelementptr inbounds nuw %struct._value_string, ptr %59, i32 0, i32 1
  %61 = load ptr, ptr %60, align 8
  %62 = load ptr, ptr %14, align 8
  %63 = call i32 @g_strcmp0(ptr noundef %61, ptr noundef %62)
  %64 = icmp eq i32 %63, 0
  br i1 %64, label %65, label %68

65:                                               ; preds = %55
  %66 = load ptr, ptr %13, align 8
  store ptr null, ptr %66, align 8
  %67 = load ptr, ptr %14, align 8
  call void @g_free(ptr noundef %67)
  store i1 true, ptr %7, align 1
  store i32 1, ptr %18, align 4
  br label %77

68:                                               ; preds = %55
  br label %69

69:                                               ; preds = %68
  %70 = load i32, ptr %15, align 4
  %71 = add i32 %70, 1
  store i32 %71, ptr %15, align 4
  br label %47, !llvm.loop !43

72:                                               ; preds = %47
  %73 = load ptr, ptr %14, align 8
  %74 = call noalias ptr (ptr, ptr, ...) @wmem_strdup_printf(ptr noundef null, ptr noundef @.str.296, ptr noundef %73)
  %75 = load ptr, ptr %13, align 8
  store ptr %74, ptr %75, align 8
  %76 = load ptr, ptr %14, align 8
  call void @g_free(ptr noundef %76)
  store i1 false, ptr %7, align 1
  store i32 1, ptr %18, align 4
  br label %77

77:                                               ; preds = %72, %65
  call void @llvm.lifetime.end.p0(i64 8, ptr %16) #2
  call void @llvm.lifetime.end.p0(i64 4, ptr %15) #2
  call void @llvm.lifetime.end.p0(i64 8, ptr %14) #2
  %78 = load i1, ptr %7, align 1
  ret i1 %78
}