; Function Attrs: mustprogress null_pointer_is_valid sspstrong uwtable
define internal noundef zeroext i1 @_ZL19sma_period_chk_enumPvPKcjPKvS3_PPc(ptr readnone captures(none) %0, ptr noundef %1, i32 noundef %2, ptr noundef readonly captures(none) %3, ptr readnone captures(none) %4, ptr noundef writeonly captures(none) %5) #2 {
  %7 = zext i32 %2 to i64
  %8 = tail call noalias ptr @g_strndup(ptr noundef %1, i64 noundef %7)
  %9 = tail call noundef ptr @strstr(ptr noundef %8, ptr noundef nonnull dereferenceable(1) @.str.294) #39
  %10 = icmp eq ptr %9, null
  br i1 %10, label %11, label %21

11:                                               ; preds = %6
  %12 = tail call i32 @strcmp(ptr noundef %8, ptr noundef nonnull dereferenceable(5) @.str.50) #39
  %13 = icmp eq i32 %12, 0
  br i1 %13, label %21, label %sub_0

sub_0:                                            ; preds = %11
  %14 = load i8, ptr %8, align 1
  %.not29 = icmp eq i8 %14, 48
  br i1 %.not29, label %.tail, label %.tail.thread

.tail:                                            ; preds = %sub_0
  %15 = getelementptr inbounds nuw i8, ptr %8, i64 1
  %16 = load i8, ptr %15, align 1
  %17 = icmp eq i8 %16, 0
  br i1 %17, label %18, label %.tail.thread

18:                                               ; preds = %.tail
  tail call void @g_free(ptr noundef %8)
  %19 = tail call noalias ptr @g_strdup(ptr noundef nonnull @.str.50)
  br label %21

.tail.thread:                                     ; preds = %sub_0, %.tail
  %20 = tail call noalias ptr (ptr, ptr, ...) @wmem_strdup_printf(ptr noundef null, ptr noundef nonnull @.str.295, ptr noundef %8)
  tail call void @g_free(ptr noundef %8)
  br label %21

21:                                               ; preds = %11, %.tail.thread, %18, %6
  %.021 = phi ptr [ %8, %11 ], [ %19, %18 ], [ %20, %.tail.thread ], [ %8, %6 ]
  %22 = getelementptr i8, ptr %3, i64 8
  %23 = load ptr, ptr %22, align 8
  %.not26.not = icmp eq ptr %23, null
  br i1 %.not26.not, label %._crit_edge, label %.lr.ph

24:                                               ; preds = %.lr.ph
  %25 = add i32 %.02227, 1
  %26 = zext i32 %25 to i64
  %27 = getelementptr %struct._value_string, ptr %3, i64 %26, i32 1
  %28 = load ptr, ptr %27, align 8
  %.not.not = icmp eq ptr %28, null
  br i1 %.not.not, label %._crit_edge, label %.lr.ph, !llvm.loop !270

.lr.ph:                                           ; preds = %21, %24
  %29 = phi ptr [ %28, %24 ], [ %23, %21 ]
  %.02227 = phi i32 [ %25, %24 ], [ 0, %21 ]
  %30 = tail call i32 @g_strcmp0(ptr noundef nonnull %29, ptr noundef %.021)
  %31 = icmp eq i32 %30, 0
  br i1 %31, label %.loopexit, label %24

._crit_edge:                                      ; preds = %24, %21
  %32 = tail call noalias ptr (ptr, ptr, ...) @wmem_strdup_printf(ptr noundef null, ptr noundef nonnull @.str.296, ptr noundef %.021)
  br label %.loopexit

.loopexit:                                        ; preds = %.lr.ph, %._crit_edge
  %.sink = phi ptr [ %32, %._crit_edge ], [ null, %.lr.ph ]
  %.not25 = phi i1 [ false, %._crit_edge ], [ true, %.lr.ph ]
  store ptr %.sink, ptr %5, align 8
  tail call void @g_free(ptr noundef %.021)
  ret i1 %.not25
}